target datalayout = "e-m:e-p270:32:32-p271:32:32-p272:64:64-i64:64-i128:128-f80:128-n8:16:32:64-S128"
target triple = "x86_64-pc-linux-gnu"

%struct._packet_info = type { ptr, ptr, i32, i32, %struct.nstime_t, %struct.nstime_t, %struct.nstime_t, i8, ptr, ptr, ptr, ptr, %struct._address, %struct._address, %struct._address, %struct._address, %struct._address, %struct._address, i32, ptr, i8, [3 x i8], %struct.anon, i32, i32, i32, i32, ptr, i8, ptr, ptr, i16, i16, i32, i32, i16, i32, i32, ptr, ptr, ptr, i8, i8, i16, i16, i16, i32, i16, i16, ptr, ptr, ptr, ptr, ptr, i32, i32 }
%struct.nstime_t = type { i64, i32 }
%struct._address = type { i32, i32, ptr, ptr }
%struct.anon = type { i8, [3 x i8] }

@.str.181 = private unnamed_addr constant [3 x i8] c"%s\00", align 1

; Function Attrs: null_pointer_is_valid sspstrong uwtable
define internal void @add_split_lines(ptr noundef %0, ptr noundef %1, i32 noundef %2, ptr noundef %3, i32 noundef %4) #0 {
  %6 = alloca ptr, align 8
  %7 = alloca ptr, align 8
  %8 = alloca i32, align 4
  %9 = alloca ptr, align 8
  %10 = alloca i32, align 4
  %11 = alloca i32, align 4
  %12 = alloca i32, align 4
  %13 = alloca i32, align 4
  %14 = alloca i32, align 4
  %15 = alloca ptr, align 8
  store ptr %0, ptr %6, align 8
  store ptr %1, ptr %7, align 8
  store i32 %2, ptr %8, align 4
  store ptr %3, ptr %9, align 8
  store i32 %4, ptr %10, align 4
  call void @llvm.lifetime.start.p0(i64 4, ptr %11) #6
  %16 = load i32, ptr %8, align 4
  store i32 %16, ptr %11, align 4
  call void @llvm.lifetime.start.p0(i64 4, ptr %12) #6
  br label %17

17:                                               ; preds = %49, %5
  %18 = load ptr, ptr %7, align 8
  %19 = load i32, ptr %11, align 4
  %20 = call zeroext i1 @tvb_offset_exists(ptr noundef %18, i32 noundef %19)
  br i1 %20, label %21, label %50

21:                                               ; preds = %17
  call void @llvm.lifetime.start.p0(i64 4, ptr %13) #6
  %22 = load ptr, ptr %7, align 8
  %23 = load i32, ptr %11, align 4
  %24 = call i32 @tvb_find_line_end(ptr noundef %22, i32 noundef %23, i32 noundef -1, ptr noundef %12, i1 noundef zeroext false)
  store i32 %24, ptr %13, align 4
  %25 = load i32, ptr %13, align 4
  %26 = icmp eq i32 %25, -1
  br i1 %26, label %27, label %28

27:                                               ; preds = %21
  store i32 3, ptr %14, align 4
  br label %47

28:                                               ; preds = %21
  call void @llvm.lifetime.start.p0(i64 8, ptr %15) #6
  %29 = load ptr, ptr %6, align 8
  %30 = getelementptr inbounds nuw %struct._packet_info, ptr %29, i32 0, i32 51
  %31 = load ptr, ptr %30, align 8
  %32 = load ptr, ptr %7, align 8
  %33 = load i32, ptr %11, align 4
  %34 = load i32, ptr %13, align 4
  %35 = call ptr @tvb_get_string_enc(ptr noundef %31, ptr noundef %32, i32 noundef %33, i32 noundef %34, i32 noundef 2)
  store ptr %35, ptr %15, align 8
  %36 = load ptr, ptr %9, align 8
  %37 = load i32, ptr %10, align 4
  %38 = load ptr, ptr %7, align 8
  %39 = load i32, ptr %11, align 4
  %40 = load i32, ptr %12, align 4
  %41 = load i32, ptr %11, align 4
  %42 = sub i32 %40, %41
  %43 = load ptr, ptr %15, align 8
  %44 = load ptr, ptr %15, align 8
  %45 = call ptr (ptr, i32, ptr, i32, i32, ptr, ptr, ...) @proto_tree_add_string_format_value(ptr noundef %36, i32 noundef %37, ptr noundef %38, i32 noundef %39, i32 noundef %42, ptr noundef %43, ptr noundef @.str.181, ptr noundef %44)
  %46 = load i32, ptr %12, align 4
  store i32 %46, ptr %11, align 4
  call void @llvm.lifetime.end.p0(i64 8, ptr %15) #6
  store i32 0, ptr %14, align 4
  br label %47

47:                                               ; preds = %28, %27
  call void @llvm.lifetime.end.p0(i64 4, ptr %13) #6
  %48 = load i32, ptr %14, align 4
  switch i32 %48, label %51 [
    i32 0, label %49
    i32 3, label %50
  ]

49:                                               ; preds = %47
  br label %17, !llvm.loop !6

50:                                               ; preds = %47, %17
  call void @llvm.lifetime.end.p0(i64 4, ptr %12) #6
  call void @llvm.lifetime.end.p0(i64 4, ptr %11) #6
  ret void

51:                                               ; preds = %47
  unreachable
}