; Function Attrs: null_pointer_is_valid sspstrong uwtable
define internal fastcc void @add_split_lines(ptr noundef readonly captures(none) %0, ptr noundef %1, i32 noundef range(i32 0, 7) %2, ptr noundef %3, i32 noundef %4) unnamed_addr #0 {
  %6 = alloca i32, align 4
  call void @llvm.lifetime.start.p0(i64 4, ptr nonnull %6) #8
  %7 = tail call zeroext i1 @tvb_offset_exists(ptr noundef %1, i32 noundef %2)
  br i1 %7, label %.lr.ph, label %.thread

.lr.ph:                                           ; preds = %5
  %8 = getelementptr inbounds nuw i8, ptr %0, i64 408
  br label %9

9:                                                ; preds = %.lr.ph, %12
  %.022 = phi i32 [ %2, %.lr.ph ], [ %18, %12 ]
  %10 = call i32 @tvb_find_line_end(ptr noundef %1, i32 noundef %.022, i32 noundef -1, ptr noundef nonnull %6, i1 noundef zeroext false)
  %11 = icmp eq i32 %10, -1
  br i1 %11, label %.thread, label %12

12:                                               ; preds = %9
  %13 = load ptr, ptr %8, align 8
  %14 = call ptr @tvb_get_string_enc(ptr noundef %13, ptr noundef %1, i32 noundef %.022, i32 noundef %10, i32 noundef 2)
  %15 = load i32, ptr %6, align 4
  %16 = sub i32 %15, %.022
  %17 = call ptr (ptr, i32, ptr, i32, i32, ptr, ptr, ...) @proto_tree_add_string_format_value(ptr noundef %3, i32 noundef %4, ptr noundef %1, i32 noundef %.022, i32 noundef %16, ptr noundef %14, ptr noundef nonnull @.str.181, ptr noundef %14)
  %18 = load i32, ptr %6, align 4
  %19 = call zeroext i1 @tvb_offset_exists(ptr noundef %1, i32 noundef %18)
  br i1 %19, label %9, label %.thread

.thread:                                          ; preds = %12, %9, %5
  call void @llvm.lifetime.end.p0(i64 4, ptr nonnull %6) #8
  ret void
}